; Function Attrs: mustprogress uwtable
define hidden noundef zeroext i1 @_ZNK4cvc58internal22UninterpretedSortValueltERKS1_(ptr noundef nonnull align 8 dereferenceable(24) %0, ptr noundef nonnull align 8 dereferenceable(24) %1) local_unnamed_addr #3 align 2 {
  %3 = load ptr, ptr %0, align 8, !tbaa !3
  %4 = load ptr, ptr %1, align 8, !tbaa !3
  %5 = load ptr, ptr %3, align 8, !tbaa !10
  %6 = load i64, ptr %5, align 8
  %7 = and i64 %6, 1099511627775
  %8 = load ptr, ptr %4, align 8, !tbaa !10
  %9 = load i64, ptr %8, align 8
  %10 = and i64 %9, 1099511627775
  %11 = icmp samesign ult i64 %7, %10
  br i1 %11, label %18, label %12

12:                                               ; preds = %2
  %13 = icmp eq ptr %5, %8
  br i1 %13, label %14, label %18

14:                                               ; preds = %12
  %15 = getelementptr inbounds nuw i8, ptr %0, i64 8
  %16 = getelementptr inbounds nuw i8, ptr %1, i64 8
  %17 = tail call noundef zeroext i1 @_ZNK4cvc58internal7IntegerltERKS1_(ptr noundef nonnull align 8 dereferenceable(16) %15, ptr noundef nonnull align 8 dereferenceable(16) %16)
  br label %18

18:                                               ; preds = %12, %14, %2
  %19 = phi i1 [ true, %2 ], [ false, %12 ], [ %17, %14 ]
  ret i1 %19
}